target datalayout = "e-m:e-p270:32:32-p271:32:32-p272:64:64-i64:64-i128:128-f80:128-n8:16:32:64-S128"
target triple = "x86_64-pc-linux-gnu"

%"class.pxrInternal_v0_24__pxrReserved__::HdDataSourceLocator" = type { %"class.pxrInternal_v0_24__pxrReserved__::TfSmallVector" }
%"class.pxrInternal_v0_24__pxrReserved__::TfSmallVector" = type { %"union.pxrInternal_v0_24__pxrReserved__::TfSmallVectorBase::_DataUnion", i32, i32 }
%"union.pxrInternal_v0_24__pxrReserved__::TfSmallVectorBase::_DataUnion" = type { ptr, [40 x i8] }
%"class.pxrInternal_v0_24__pxrReserved__::TfToken" = type { %"class.pxrInternal_v0_24__pxrReserved__::TfPointerAndBits" }
%"class.pxrInternal_v0_24__pxrReserved__::TfPointerAndBits" = type { ptr }

@_ZN32pxrInternal_v0_24__pxrReserved__19HdDataSourceLocatorC1Ev = unnamed_addr alias void (ptr), ptr @_ZN32pxrInternal_v0_24__pxrReserved__19HdDataSourceLocatorC2Ev
@_ZN32pxrInternal_v0_24__pxrReserved__19HdDataSourceLocatorC1EmPKNS_7TfTokenE = unnamed_addr alias void (ptr, i64, ptr), ptr @_ZN32pxrInternal_v0_24__pxrReserved__19HdDataSourceLocatorC2EmPKNS_7TfTokenE

; Function Attrs: mustprogress nounwind uwtable
define linkonce_odr noundef ptr @_ZNK32pxrInternal_v0_24__pxrReserved__17TfSmallVectorBase10_DataUnionILm8ELm8ELm6EE16GetRemoteStorageEv(ptr noundef nonnull align 8 dereferenceable(48) %0) #2 comdat align 2 {
  %2 = alloca ptr, align 8
  store ptr %0, ptr %2, align 8
  %3 = load ptr, ptr %2, align 8
  %4 = load ptr, ptr %3, align 8
  ret ptr %4
}

; Function Attrs: mustprogress nounwind uwtable
define linkonce_odr noundef ptr @_ZNK32pxrInternal_v0_24__pxrReserved__17TfSmallVectorBase10_DataUnionILm8ELm8ELm6EE15GetLocalStorageEv(ptr noundef nonnull align 8 dereferenceable(48) %0) #2 comdat align 2 {
  %2 = alloca ptr, align 8
  store ptr %0, ptr %2, align 8
  %3 = load ptr, ptr %2, align 8
  %4 = getelementptr inbounds [48 x i8], ptr %3, i64 0, i64 0
  ret ptr %4
}

; Function Attrs: mustprogress uwtable
define linkonce_odr noundef ptr @_ZNK32pxrInternal_v0_24__pxrReserved__13TfSmallVectorINS_7TfTokenELj6EE17_GetRemoteStorageEv(ptr noundef nonnull align 8 dereferenceable(56) %0) #0 comdat align 2 {
  %2 = alloca ptr, align 8
  store ptr %0, ptr %2, align 8
  %3 = load ptr, ptr %2, align 8
  %4 = getelementptr inbounds nuw %"class.pxrInternal_v0_24__pxrReserved__::TfSmallVector", ptr %3, i32 0, i32 0
  %5 = call noundef ptr @_ZNK32pxrInternal_v0_24__pxrReserved__17TfSmallVectorBase10_DataUnionILm8ELm8ELm6EE16GetRemoteStorageEv(ptr noundef nonnull align 8 dereferenceable(48) %4)
  ret ptr %5
}

; Function Attrs: mustprogress uwtable
define linkonce_odr noundef ptr @_ZNK32pxrInternal_v0_24__pxrReserved__13TfSmallVectorINS_7TfTokenELj6EE16_GetLocalStorageEv(ptr noundef nonnull align 8 dereferenceable(56) %0) #0 comdat align 2 {
  %2 = alloca ptr, align 8
  store ptr %0, ptr %2, align 8
  %3 = load ptr, ptr %2, align 8
  %4 = getelementptr inbounds nuw %"class.pxrInternal_v0_24__pxrReserved__::TfSmallVector", ptr %3, i32 0, i32 0
  %5 = call noundef ptr @_ZNK32pxrInternal_v0_24__pxrReserved__17TfSmallVectorBase10_DataUnionILm8ELm8ELm6EE15GetLocalStorageEv(ptr noundef nonnull align 8 dereferenceable(48) %4)
  ret ptr %5
}

; Function Attrs: mustprogress nounwind uwtable
define linkonce_odr noundef zeroext i1 @_ZNK32pxrInternal_v0_24__pxrReserved__13TfSmallVectorINS_7TfTokenELj6EE8_IsLocalEv(ptr noundef nonnull align 8 dereferenceable(56) %0) #2 comdat align 2 {
  %2 = alloca ptr, align 8
  store ptr %0, ptr %2, align 8
  %3 = load ptr, ptr %2, align 8
  %4 = getelementptr inbounds nuw %"class.pxrInternal_v0_24__pxrReserved__::TfSmallVector", ptr %3, i32 0, i32 2
  %5 = load i32, ptr %4, align 4
  %6 = icmp ule i32 %5, 6
  ret i1 %6
}

; Function Attrs: mustprogress uwtable
define linkonce_odr noundef ptr @_ZNK32pxrInternal_v0_24__pxrReserved__13TfSmallVectorINS_7TfTokenELj6EE11_GetStorageEv(ptr noundef nonnull align 8 dereferenceable(56) %0) #0 comdat align 2 {
  %2 = alloca ptr, align 8
  store ptr %0, ptr %2, align 8
  %3 = load ptr, ptr %2, align 8
  %4 = call noundef zeroext i1 @_ZNK32pxrInternal_v0_24__pxrReserved__13TfSmallVectorINS_7TfTokenELj6EE8_IsLocalEv(ptr noundef nonnull align 8 dereferenceable(56) %3)
  br i1 %4, label %5, label %7

5:                                                ; preds = %1
  %6 = call noundef ptr @_ZNK32pxrInternal_v0_24__pxrReserved__13TfSmallVectorINS_7TfTokenELj6EE16_GetLocalStorageEv(ptr noundef nonnull align 8 dereferenceable(56) %3)
  br label %9

7:                                                ; preds = %1
  %8 = call noundef ptr @_ZNK32pxrInternal_v0_24__pxrReserved__13TfSmallVectorINS_7TfTokenELj6EE17_GetRemoteStorageEv(ptr noundef nonnull align 8 dereferenceable(56) %3)
  br label %9

9:                                                ; preds = %7, %5
  %10 = phi ptr [ %6, %5 ], [ %8, %7 ]
  ret ptr %10
}

; Function Attrs: mustprogress uwtable
define linkonce_odr noundef ptr @_ZNK32pxrInternal_v0_24__pxrReserved__13TfSmallVectorINS_7TfTokenELj6EE4dataEv(ptr noundef nonnull align 8 dereferenceable(56) %0) #0 comdat align 2 {
  %2 = alloca ptr, align 8
  store ptr %0, ptr %2, align 8
  %3 = load ptr, ptr %2, align 8
  %4 = call noundef ptr @_ZNK32pxrInternal_v0_24__pxrReserved__13TfSmallVectorINS_7TfTokenELj6EE11_GetStorageEv(ptr noundef nonnull align 8 dereferenceable(56) %3)
  ret ptr %4
}

; Function Attrs: mustprogress nounwind uwtable
define linkonce_odr noundef i64 @_ZNK32pxrInternal_v0_24__pxrReserved__13TfSmallVectorINS_7TfTokenELj6EE4sizeEv(ptr noundef nonnull align 8 dereferenceable(56) %0) #2 comdat align 2 {
  %2 = alloca ptr, align 8
  store ptr %0, ptr %2, align 8
  %3 = load ptr, ptr %2, align 8
  %4 = getelementptr inbounds nuw %"class.pxrInternal_v0_24__pxrReserved__::TfSmallVector", ptr %3, i32 0, i32 1
  %5 = load i32, ptr %4, align 8
  %6 = zext i32 %5 to i64
  ret i64 %6
}

; Function Attrs: mustprogress uwtable
define void @_ZNK32pxrInternal_v0_24__pxrReserved__19HdDataSourceLocator18RemoveFirstElementEv(ptr dead_on_unwind noalias writable sret(%"class.pxrInternal_v0_24__pxrReserved__::HdDataSourceLocator") align 8 %0, ptr noundef nonnull align 8 dereferenceable(56) %1) #0 align 2 {
  %3 = alloca ptr, align 8
  %4 = alloca ptr, align 8
  store ptr %0, ptr %3, align 8
  store ptr %1, ptr %4, align 8
  %5 = load ptr, ptr %4, align 8
  %6 = getelementptr inbounds nuw %"class.pxrInternal_v0_24__pxrReserved__::HdDataSourceLocator", ptr %5, i32 0, i32 0
  %7 = call noundef i64 @_ZNK32pxrInternal_v0_24__pxrReserved__13TfSmallVectorINS_7TfTokenELj6EE4sizeEv(ptr noundef nonnull align 8 dereferenceable(56) %6)
  %8 = icmp ult i64 %7, 2
  br i1 %8, label %9, label %10

9:                                                ; preds = %2
  call void @_ZN32pxrInternal_v0_24__pxrReserved__19HdDataSourceLocatorC1Ev(ptr noundef nonnull align 8 dereferenceable(56) %0)
  br label %17

10:                                               ; preds = %2
  %11 = getelementptr inbounds nuw %"class.pxrInternal_v0_24__pxrReserved__::HdDataSourceLocator", ptr %5, i32 0, i32 0
  %12 = call noundef i64 @_ZNK32pxrInternal_v0_24__pxrReserved__13TfSmallVectorINS_7TfTokenELj6EE4sizeEv(ptr noundef nonnull align 8 dereferenceable(56) %11)
  %13 = sub i64 %12, 1
  %14 = getelementptr inbounds nuw %"class.pxrInternal_v0_24__pxrReserved__::HdDataSourceLocator", ptr %5, i32 0, i32 0
  %15 = call noundef ptr @_ZNK32pxrInternal_v0_24__pxrReserved__13TfSmallVectorINS_7TfTokenELj6EE4dataEv(ptr noundef nonnull align 8 dereferenceable(56) %14)
  %16 = getelementptr inbounds %"class.pxrInternal_v0_24__pxrReserved__::TfToken", ptr %15, i64 1
  call void @_ZN32pxrInternal_v0_24__pxrReserved__19HdDataSourceLocatorC1EmPKNS_7TfTokenE(ptr noundef nonnull align 8 dereferenceable(56) %0, i64 noundef %13, ptr noundef %16)
  br label %17

17:                                               ; preds = %10, %9
  ret void
}