; Function Attrs: mustprogress uwtable
define void @_ZNK32pxrInternal_v0_24__pxrReserved__19HdDataSourceLocator18RemoveFirstElementEv(ptr dead_on_unwind noalias writable sret(%"class.pxrInternal_v0_24__pxrReserved__::HdDataSourceLocator") align 8 %0, ptr noundef nonnull align 8 dereferenceable(56) %1) local_unnamed_addr #0 align 2 {
  %3 = getelementptr inbounds nuw i8, ptr %1, i64 48
  %4 = load i32, ptr %3, align 8
  %5 = icmp ult i32 %4, 2
  br i1 %5, label %6, label %7

6:                                                ; preds = %2
  tail call void @_ZN32pxrInternal_v0_24__pxrReserved__19HdDataSourceLocatorC1Ev(ptr noundef nonnull align 8 dereferenceable(56) %0)
  br label %15

7:                                                ; preds = %2
  %8 = zext i32 %4 to i64
  %9 = add nsw i64 %8, -1
  %10 = getelementptr inbounds nuw i8, ptr %1, i64 52
  %11 = load i32, ptr %10, align 4
  %12 = icmp ult i32 %11, 7
  %13 = load ptr, ptr %1, align 8
  %spec.select.i.i = select i1 %12, ptr %1, ptr %13
  %14 = getelementptr inbounds i8, ptr %spec.select.i.i, i64 8
  tail call void @_ZN32pxrInternal_v0_24__pxrReserved__19HdDataSourceLocatorC1EmPKNS_7TfTokenE(ptr noundef nonnull align 8 dereferenceable(56) %0, i64 noundef %9, ptr noundef nonnull %14)
  br label %15

15:                                               ; preds = %7, %6
  ret void
}